target datalayout = "e-m:e-p270:32:32-p271:32:32-p272:64:64-i64:64-i128:128-f80:128-n8:16:32:64-S128"
target triple = "x86_64-pc-linux-gnu"

%"class.icu_77::RegionValidateMap" = type { %"class.icu_77::UObject", [22 x i32] }
%"class.icu_77::UObject" = type { ptr }

; Function Attrs: mustprogress uwtable
define noundef i32 @_ZNK6icu_7717RegionValidateMap5valueEPKc(ptr noundef nonnull align 8 dereferenceable(96) %0, ptr noundef %1) #1 align 2 {
  %3 = alloca i32, align 4
  %4 = alloca ptr, align 8
  %5 = alloca ptr, align 8
  store ptr %0, ptr %4, align 8, !tbaa !58
  store ptr %1, ptr %5, align 8, !tbaa !17
  %6 = load ptr, ptr %5, align 8, !tbaa !17
  %7 = getelementptr inbounds i8, ptr %6, i64 0
  %8 = load i8, ptr %7, align 1, !tbaa !47
  %9 = call signext i8 @uprv_isASCIILetter_77(i8 noundef signext %8)
  %10 = icmp ne i8 %9, 0
  br i1 %10, label %11, label %38

11:                                               ; preds = %2
  %12 = load ptr, ptr %5, align 8, !tbaa !17
  %13 = getelementptr inbounds i8, ptr %12, i64 1
  %14 = load i8, ptr %13, align 1, !tbaa !47
  %15 = call signext i8 @uprv_isASCIILetter_77(i8 noundef signext %14)
  %16 = icmp ne i8 %15, 0
  br i1 %16, label %17, label %38

17:                                               ; preds = %11
  %18 = load ptr, ptr %5, align 8, !tbaa !17
  %19 = getelementptr inbounds i8, ptr %18, i64 2
  %20 = load i8, ptr %19, align 1, !tbaa !47
  %21 = sext i8 %20 to i32
  %22 = icmp eq i32 %21, 0
  br i1 %22, label %23, label %38

23:                                               ; preds = %17
  %24 = load ptr, ptr %5, align 8, !tbaa !17
  %25 = getelementptr inbounds i8, ptr %24, i64 0
  %26 = load i8, ptr %25, align 1, !tbaa !47
  %27 = call signext i8 @uprv_toupper_77(i8 noundef signext %26)
  %28 = sext i8 %27 to i32
  %29 = sub nsw i32 %28, 65
  %30 = mul nsw i32 %29, 26
  %31 = load ptr, ptr %5, align 8, !tbaa !17
  %32 = getelementptr inbounds i8, ptr %31, i64 1
  %33 = load i8, ptr %32, align 1, !tbaa !47
  %34 = call signext i8 @uprv_toupper_77(i8 noundef signext %33)
  %35 = sext i8 %34 to i32
  %36 = sub nsw i32 %35, 65
  %37 = add nsw i32 %30, %36
  store i32 %37, ptr %3, align 4
  br label %39

38:                                               ; preds = %17, %11, %2
  store i32 -1, ptr %3, align 4
  br label %39

39:                                               ; preds = %38, %23
  %40 = load i32, ptr %3, align 4
  ret i32 %40
}

; Function Attrs: mustprogress uwtable
define noundef zeroext i1 @_ZNK6icu_7717RegionValidateMap5isSetEPKc(ptr noundef nonnull align 8 dereferenceable(96) %0, ptr noundef %1) #1 align 2 {
  %3 = alloca i1, align 1
  %4 = alloca ptr, align 8
  %5 = alloca ptr, align 8
  %6 = alloca i32, align 4
  %7 = alloca i32, align 4
  store ptr %0, ptr %4, align 8, !tbaa !58
  store ptr %1, ptr %5, align 8, !tbaa !17
  %8 = load ptr, ptr %4, align 8
  call void @llvm.lifetime.start.p0(i64 4, ptr %6) #11
  %9 = load ptr, ptr %5, align 8, !tbaa !17
  %10 = call noundef i32 @_ZNK6icu_7717RegionValidateMap5valueEPKc(ptr noundef nonnull align 8 dereferenceable(96) %8, ptr noundef %9)
  store i32 %10, ptr %6, align 4, !tbaa !14
  %11 = load i32, ptr %6, align 4, !tbaa !14
  %12 = icmp slt i32 %11, 0
  br i1 %12, label %13, label %14

13:                                               ; preds = %2
  store i1 false, ptr %3, align 1
  store i32 1, ptr %7, align 4
  br label %28

14:                                               ; preds = %2
  %15 = getelementptr inbounds nuw %"class.icu_77::RegionValidateMap", ptr %8, i32 0, i32 1
  %16 = load i32, ptr %6, align 4, !tbaa !14
  %17 = sdiv i32 %16, 32
  %18 = sext i32 %17 to i64
  %19 = getelementptr inbounds [22 x i32], ptr %15, i64 0, i64 %18
  %20 = load i32, ptr %19, align 4, !tbaa !14
  %21 = zext i32 %20 to i64
  %22 = load i32, ptr %6, align 4, !tbaa !14
  %23 = srem i32 %22, 32
  %24 = zext i32 %23 to i64
  %25 = shl i64 1, %24
  %26 = and i64 %21, %25
  %27 = icmp ne i64 0, %26
  store i1 %27, ptr %3, align 1
  store i32 1, ptr %7, align 4
  br label %28

28:                                               ; preds = %14, %13
  call void @llvm.lifetime.end.p0(i64 4, ptr %6) #11
  %29 = load i1, ptr %3, align 1
  ret i1 %29
}