; Function Attrs: mustprogress uwtable
define noundef zeroext i1 @_ZNK6icu_7717RegionValidateMap5isSetEPKc(ptr noundef nonnull readonly align 8 captures(none) dereferenceable(96) %0, ptr noundef readonly captures(none) %1) local_unnamed_addr #1 align 2 {
  %3 = load i8, ptr %1, align 1, !tbaa !24
  %4 = tail call signext i8 @uprv_isASCIILetter_77(i8 noundef signext %3)
  %.not.i = icmp eq i8 %4, 0
  br i1 %.not.i, label %_ZNK6icu_7717RegionValidateMap5valueEPKc.exit.thread, label %5

5:                                                ; preds = %2
  %6 = getelementptr inbounds nuw i8, ptr %1, i64 1
  %7 = load i8, ptr %6, align 1, !tbaa !24
  %8 = tail call signext i8 @uprv_isASCIILetter_77(i8 noundef signext %7)
  %.not5.i = icmp eq i8 %8, 0
  br i1 %.not5.i, label %_ZNK6icu_7717RegionValidateMap5valueEPKc.exit.thread, label %9

9:                                                ; preds = %5
  %10 = getelementptr inbounds nuw i8, ptr %1, i64 2
  %11 = load i8, ptr %10, align 1, !tbaa !24
  %12 = icmp eq i8 %11, 0
  br i1 %12, label %_ZNK6icu_7717RegionValidateMap5valueEPKc.exit, label %_ZNK6icu_7717RegionValidateMap5valueEPKc.exit.thread

_ZNK6icu_7717RegionValidateMap5valueEPKc.exit:    ; preds = %9
  %13 = load i8, ptr %1, align 1, !tbaa !24
  %14 = tail call signext i8 @uprv_toupper_77(i8 noundef signext %13)
  %15 = sext i8 %14 to i32
  %16 = mul nsw i32 %15, 26
  %17 = load i8, ptr %6, align 1, !tbaa !24
  %18 = tail call signext i8 @uprv_toupper_77(i8 noundef signext %17)
  %19 = sext i8 %18 to i32
  %20 = add nsw i32 %16, -1755
  %21 = add nsw i32 %20, %19
  %22 = icmp slt i32 %21, 0
  br i1 %22, label %_ZNK6icu_7717RegionValidateMap5valueEPKc.exit.thread, label %23

23:                                               ; preds = %_ZNK6icu_7717RegionValidateMap5valueEPKc.exit
  %24 = getelementptr inbounds nuw i8, ptr %0, i64 8
  %25 = lshr i32 %21, 5
  %26 = zext nneg i32 %25 to i64
  %27 = getelementptr inbounds nuw [22 x i32], ptr %24, i64 0, i64 %26
  %28 = load i32, ptr %27, align 4, !tbaa !12
  %29 = zext i32 %28 to i64
  %30 = and i32 %21, 31
  %31 = zext nneg i32 %30 to i64
  %32 = shl nuw nsw i64 1, %31
  %33 = and i64 %32, %29
  %34 = icmp ne i64 %33, 0
  br label %_ZNK6icu_7717RegionValidateMap5valueEPKc.exit.thread

_ZNK6icu_7717RegionValidateMap5valueEPKc.exit.thread: ; preds = %2, %5, %9, %_ZNK6icu_7717RegionValidateMap5valueEPKc.exit, %23
  %.0 = phi i1 [ %34, %23 ], [ false, %_ZNK6icu_7717RegionValidateMap5valueEPKc.exit ], [ false, %9 ], [ false, %5 ], [ false, %2 ]
  ret i1 %.0
}